target datalayout = "e-m:e-p270:32:32-p271:32:32-p272:64:64-i64:64-i128:128-f80:128-n8:16:32:64-S128"
target triple = "x86_64-unknown-linux-gnu"

%struct.ecc_point = type { [1 x %struct.sp_int], [1 x %struct.sp_int], [1 x %struct.sp_int] }
%struct.sp_int = type { i32, i32, [129 x i64] }

; Function Attrs: nounwind uwtable
define internal i32 @wc_ecc_gen_z(ptr noundef %rng, i32 noundef %size, ptr noundef %p, ptr noundef %modulus, i64 noundef %mp, ptr noundef %tx, ptr noundef %ty, ptr noundef %mu) #0 {
entry:
  %rng.addr = alloca ptr, align 8
  %size.addr = alloca i32, align 4
  %p.addr = alloca ptr, align 8
  %modulus.addr = alloca ptr, align 8
  %mp.addr = alloca i64, align 8
  %tx.addr = alloca ptr, align 8
  %ty.addr = alloca ptr, align 8
  %mu.addr = alloca ptr, align 8
  %err = alloca i32, align 4
  store ptr %rng, ptr %rng.addr, align 8
  store i32 %size, ptr %size.addr, align 4
  store ptr %p, ptr %p.addr, align 8
  store ptr %modulus, ptr %modulus.addr, align 8
  store i64 %mp, ptr %mp.addr, align 8
  store ptr %tx, ptr %tx.addr, align 8
  store ptr %ty, ptr %ty.addr, align 8
  store ptr %mu, ptr %mu.addr, align 8
  store i32 0, ptr %err, align 4
  %0 = load ptr, ptr %mu.addr, align 8
  %1 = load ptr, ptr %modulus.addr, align 8
  %call = call i32 @sp_mont_norm(ptr noundef %0, ptr noundef %1)
  store i32 %call, ptr %err, align 4
  %2 = load i32, ptr %err, align 4
  %cmp = icmp eq i32 %2, 0
  br i1 %cmp, label %if.then, label %if.end

if.then:                                          ; preds = %entry
  %3 = load ptr, ptr %rng.addr, align 8
  %4 = load i32, ptr %size.addr, align 4
  %5 = load ptr, ptr %ty.addr, align 8
  %6 = load ptr, ptr %modulus.addr, align 8
  %call1 = call i32 @wc_ecc_gen_k(ptr noundef %3, i32 noundef %4, ptr noundef %5, ptr noundef %6)
  store i32 %call1, ptr %err, align 4
  br label %if.end

if.end:                                           ; preds = %if.then, %entry
  %7 = load i32, ptr %err, align 4
  %cmp2 = icmp eq i32 %7, 0
  br i1 %cmp2, label %if.then3, label %if.end5

if.then3:                                         ; preds = %if.end
  %8 = load ptr, ptr %ty.addr, align 8
  %9 = load ptr, ptr %mu.addr, align 8
  %10 = load ptr, ptr %modulus.addr, align 8
  %11 = load ptr, ptr %ty.addr, align 8
  %call4 = call i32 @sp_mulmod(ptr noundef %8, ptr noundef %9, ptr noundef %10, ptr noundef %11)
  store i32 %call4, ptr %err, align 4
  br label %if.end5

if.end5:                                          ; preds = %if.then3, %if.end
  %12 = load i32, ptr %err, align 4
  %cmp6 = icmp eq i32 %12, 0
  br i1 %cmp6, label %if.then7, label %if.end11

if.then7:                                         ; preds = %if.end5
  %13 = load ptr, ptr %p.addr, align 8
  %z = getelementptr inbounds %struct.ecc_point, ptr %13, i32 0, i32 2
  %arraydecay = getelementptr inbounds [1 x %struct.sp_int], ptr %z, i64 0, i64 0
  %14 = load ptr, ptr %ty.addr, align 8
  %15 = load ptr, ptr %p.addr, align 8
  %z8 = getelementptr inbounds %struct.ecc_point, ptr %15, i32 0, i32 2
  %arraydecay9 = getelementptr inbounds [1 x %struct.sp_int], ptr %z8, i64 0, i64 0
  %call10 = call i32 @sp_mul(ptr noundef %arraydecay, ptr noundef %14, ptr noundef %arraydecay9)
  store i32 %call10, ptr %err, align 4
  br label %if.end11

if.end11:                                         ; preds = %if.then7, %if.end5
  %16 = load i32, ptr %err, align 4
  %cmp12 = icmp eq i32 %16, 0
  br i1 %cmp12, label %if.then13, label %if.end17

if.then13:                                        ; preds = %if.end11
  %17 = load ptr, ptr %p.addr, align 8
  %z14 = getelementptr inbounds %struct.ecc_point, ptr %17, i32 0, i32 2
  %arraydecay15 = getelementptr inbounds [1 x %struct.sp_int], ptr %z14, i64 0, i64 0
  %18 = load ptr, ptr %modulus.addr, align 8
  %19 = load i64, ptr %mp.addr, align 8
  %call16 = call i32 @sp_mont_red_ex(ptr noundef %arraydecay15, ptr noundef %18, i64 noundef %19, i32 noundef 0)
  store i32 %call16, ptr %err, align 4
  br label %if.end17

if.end17:                                         ; preds = %if.then13, %if.end11
  %20 = load i32, ptr %err, align 4
  %cmp18 = icmp eq i32 %20, 0
  br i1 %cmp18, label %if.then19, label %if.end21

if.then19:                                        ; preds = %if.end17
  %21 = load ptr, ptr %ty.addr, align 8
  %22 = load ptr, ptr %tx.addr, align 8
  %call20 = call i32 @sp_sqr(ptr noundef %21, ptr noundef %22)
  store i32 %call20, ptr %err, align 4
  br label %if.end21

if.end21:                                         ; preds = %if.then19, %if.end17
  %23 = load i32, ptr %err, align 4
  %cmp22 = icmp eq i32 %23, 0
  br i1 %cmp22, label %if.then23, label %if.end25

if.then23:                                        ; preds = %if.end21
  %24 = load ptr, ptr %tx.addr, align 8
  %25 = load ptr, ptr %modulus.addr, align 8
  %26 = load i64, ptr %mp.addr, align 8
  %call24 = call i32 @sp_mont_red_ex(ptr noundef %24, ptr noundef %25, i64 noundef %26, i32 noundef 0)
  store i32 %call24, ptr %err, align 4
  br label %if.end25

if.end25:                                         ; preds = %if.then23, %if.end21
  %27 = load i32, ptr %err, align 4
  %cmp26 = icmp eq i32 %27, 0
  br i1 %cmp26, label %if.then27, label %if.end29

if.then27:                                        ; preds = %if.end25
  %28 = load ptr, ptr %ty.addr, align 8
  %29 = load ptr, ptr %tx.addr, align 8
  %30 = load ptr, ptr %ty.addr, align 8
  %call28 = call i32 @sp_mul(ptr noundef %28, ptr noundef %29, ptr noundef %30)
  store i32 %call28, ptr %err, align 4
  br label %if.end29

if.end29:                                         ; preds = %if.then27, %if.end25
  %31 = load i32, ptr %err, align 4
  %cmp30 = icmp eq i32 %31, 0
  br i1 %cmp30, label %if.then31, label %if.end33

if.then31:                                        ; preds = %if.end29
  %32 = load ptr, ptr %ty.addr, align 8
  %33 = load ptr, ptr %modulus.addr, align 8
  %34 = load i64, ptr %mp.addr, align 8
  %call32 = call i32 @sp_mont_red_ex(ptr noundef %32, ptr noundef %33, i64 noundef %34, i32 noundef 0)
  store i32 %call32, ptr %err, align 4
  br label %if.end33

if.end33:                                         ; preds = %if.then31, %if.end29
  %35 = load i32, ptr %err, align 4
  %cmp34 = icmp eq i32 %35, 0
  br i1 %cmp34, label %if.then35, label %if.end40

if.then35:                                        ; preds = %if.end33
  %36 = load ptr, ptr %p.addr, align 8
  %x = getelementptr inbounds %struct.ecc_point, ptr %36, i32 0, i32 0
  %arraydecay36 = getelementptr inbounds [1 x %struct.sp_int], ptr %x, i64 0, i64 0
  %37 = load ptr, ptr %tx.addr, align 8
  %38 = load ptr, ptr %p.addr, align 8
  %x37 = getelementptr inbounds %struct.ecc_point, ptr %38, i32 0, i32 0
  %arraydecay38 = getelementptr inbounds [1 x %struct.sp_int], ptr %x37, i64 0, i64 0
  %call39 = call i32 @sp_mul(ptr noundef %arraydecay36, ptr noundef %37, ptr noundef %arraydecay38)
  store i32 %call39, ptr %err, align 4
  br label %if.end40

if.end40:                                         ; preds = %if.then35, %if.end33
  %39 = load i32, ptr %err, align 4
  %cmp41 = icmp eq i32 %39, 0
  br i1 %cmp41, label %if.then42, label %if.end46

if.then42:                                        ; preds = %if.end40
  %40 = load ptr, ptr %p.addr, align 8
  %x43 = getelementptr inbounds %struct.ecc_point, ptr %40, i32 0, i32 0
  %arraydecay44 = getelementptr inbounds [1 x %struct.sp_int], ptr %x43, i64 0, i64 0
  %41 = load ptr, ptr %modulus.addr, align 8
  %42 = load i64, ptr %mp.addr, align 8
  %call45 = call i32 @sp_mont_red_ex(ptr noundef %arraydecay44, ptr noundef %41, i64 noundef %42, i32 noundef 0)
  store i32 %call45, ptr %err, align 4
  br label %if.end46

if.end46:                                         ; preds = %if.then42, %if.end40
  %43 = load i32, ptr %err, align 4
  %cmp47 = icmp eq i32 %43, 0
  br i1 %cmp47, label %if.then48, label %if.end53

if.then48:                                        ; preds = %if.end46
  %44 = load ptr, ptr %p.addr, align 8
  %y = getelementptr inbounds %struct.ecc_point, ptr %44, i32 0, i32 1
  %arraydecay49 = getelementptr inbounds [1 x %struct.sp_int], ptr %y, i64 0, i64 0
  %45 = load ptr, ptr %ty.addr, align 8
  %46 = load ptr, ptr %p.addr, align 8
  %y50 = getelementptr inbounds %struct.ecc_point, ptr %46, i32 0, i32 1
  %arraydecay51 = getelementptr inbounds [1 x %struct.sp_int], ptr %y50, i64 0, i64 0
  %call52 = call i32 @sp_mul(ptr noundef %arraydecay49, ptr noundef %45, ptr noundef %arraydecay51)
  store i32 %call52, ptr %err, align 4
  br label %if.end53

if.end53:                                         ; preds = %if.then48, %if.end46
  %47 = load i32, ptr %err, align 4
  %cmp54 = icmp eq i32 %47, 0
  br i1 %cmp54, label %if.then55, label %if.end59

if.then55:                                        ; preds = %if.end53
  %48 = load ptr, ptr %p.addr, align 8
  %y56 = getelementptr inbounds %struct.ecc_point, ptr %48, i32 0, i32 1
  %arraydecay57 = getelementptr inbounds [1 x %struct.sp_int], ptr %y56, i64 0, i64 0
  %49 = load ptr, ptr %modulus.addr, align 8
  %50 = load i64, ptr %mp.addr, align 8
  %call58 = call i32 @sp_mont_red_ex(ptr noundef %arraydecay57, ptr noundef %49, i64 noundef %50, i32 noundef 0)
  store i32 %call58, ptr %err, align 4
  br label %if.end59

if.end59:                                         ; preds = %if.then55, %if.end53
  %51 = load i32, ptr %err, align 4
  ret i32 %51
}