; Function Attrs: nounwind uwtable
define internal fastcc i32 @wc_ecc_gen_z(ptr noundef nonnull %rng, i32 noundef range(i32 -268435455, 268435456) %size, ptr noundef %p, ptr noundef nonnull %modulus, i64 noundef %mp, ptr noundef %tx, ptr noundef %ty, ptr noundef %mu) unnamed_addr #2 {
entry:
  %call = tail call i32 @sp_mont_norm(ptr noundef %mu, ptr noundef nonnull %modulus) #19
  %cmp = icmp eq i32 %call, 0
  br i1 %cmp, label %if.end, label %if.end59

if.end:                                           ; preds = %entry
  %call1 = tail call i32 @wc_ecc_gen_k(ptr noundef nonnull %rng, i32 noundef %size, ptr noundef %ty, ptr noundef nonnull %modulus)
  %cmp2 = icmp eq i32 %call1, 0
  br i1 %cmp2, label %if.end5, label %if.end59

if.end5:                                          ; preds = %if.end
  %call4 = tail call i32 @sp_mulmod(ptr noundef %ty, ptr noundef %mu, ptr noundef nonnull %modulus, ptr noundef %ty) #19
  %cmp6 = icmp eq i32 %call4, 0
  br i1 %cmp6, label %if.end11, label %if.end59

if.end11:                                         ; preds = %if.end5
  %z = getelementptr inbounds nuw i8, ptr %p, i64 2080
  %call10 = tail call i32 @sp_mul(ptr noundef nonnull %z, ptr noundef %ty, ptr noundef nonnull %z) #19
  %cmp12 = icmp eq i32 %call10, 0
  br i1 %cmp12, label %if.end17, label %if.end59

if.end17:                                         ; preds = %if.end11
  %call16 = tail call i32 @sp_mont_red_ex(ptr noundef nonnull %z, ptr noundef nonnull %modulus, i64 noundef %mp, i32 noundef 0) #19
  %cmp18 = icmp eq i32 %call16, 0
  br i1 %cmp18, label %if.end21, label %if.end59

if.end21:                                         ; preds = %if.end17
  %call20 = tail call i32 @sp_sqr(ptr noundef %ty, ptr noundef %tx) #19
  %cmp22 = icmp eq i32 %call20, 0
  br i1 %cmp22, label %if.end25, label %if.end59

if.end25:                                         ; preds = %if.end21
  %call24 = tail call i32 @sp_mont_red_ex(ptr noundef %tx, ptr noundef nonnull %modulus, i64 noundef %mp, i32 noundef 0) #19
  %cmp26 = icmp eq i32 %call24, 0
  br i1 %cmp26, label %if.end29, label %if.end59

if.end29:                                         ; preds = %if.end25
  %call28 = tail call i32 @sp_mul(ptr noundef %ty, ptr noundef %tx, ptr noundef %ty) #19
  %cmp30 = icmp eq i32 %call28, 0
  br i1 %cmp30, label %if.end33, label %if.end59

if.end33:                                         ; preds = %if.end29
  %call32 = tail call i32 @sp_mont_red_ex(ptr noundef %ty, ptr noundef nonnull %modulus, i64 noundef %mp, i32 noundef 0) #19
  %cmp34 = icmp eq i32 %call32, 0
  br i1 %cmp34, label %if.end40, label %if.end59

if.end40:                                         ; preds = %if.end33
  %call39 = tail call i32 @sp_mul(ptr noundef nonnull %p, ptr noundef %tx, ptr noundef nonnull %p) #19
  %cmp41 = icmp eq i32 %call39, 0
  br i1 %cmp41, label %if.end46, label %if.end59

if.end46:                                         ; preds = %if.end40
  %call45 = tail call i32 @sp_mont_red_ex(ptr noundef nonnull %p, ptr noundef nonnull %modulus, i64 noundef %mp, i32 noundef 0) #19
  %cmp47 = icmp eq i32 %call45, 0
  br i1 %cmp47, label %if.end53, label %if.end59

if.end53:                                         ; preds = %if.end46
  %y = getelementptr inbounds nuw i8, ptr %p, i64 1040
  %call52 = tail call i32 @sp_mul(ptr noundef nonnull %y, ptr noundef %ty, ptr noundef nonnull %y) #19
  %cmp54 = icmp eq i32 %call52, 0
  br i1 %cmp54, label %if.then55, label %if.end59

if.then55:                                        ; preds = %if.end53
  %call58 = tail call i32 @sp_mont_red_ex(ptr noundef nonnull %y, ptr noundef nonnull %modulus, i64 noundef %mp, i32 noundef 0) #19
  br label %if.end59

if.end59:                                         ; preds = %entry, %if.end, %if.end5, %if.end11, %if.end17, %if.end21, %if.end25, %if.end29, %if.end33, %if.end40, %if.end46, %if.then55, %if.end53
  %err.11 = phi i32 [ %call58, %if.then55 ], [ %call52, %if.end53 ], [ %call45, %if.end46 ], [ %call39, %if.end40 ], [ %call32, %if.end33 ], [ %call28, %if.end29 ], [ %call24, %if.end25 ], [ %call20, %if.end21 ], [ %call16, %if.end17 ], [ %call10, %if.end11 ], [ %call4, %if.end5 ], [ %call1, %if.end ], [ %call, %entry ]
  ret i32 %err.11
}